target datalayout = "e-m:e-p270:32:32-p271:32:32-p272:64:64-i64:64-i128:128-f80:128-n8:16:32:64-S128"
target triple = "x86_64-pc-linux-gnu"

%struct._zend_refcounted_h = type { i32, %union.anon }
%union.anon = type { i32 }
%struct._zval_struct = type { %union._zend_value, %union.anon.3, %union.anon.6 }
%union._zend_value = type { i64 }
%union.anon.3 = type { i32 }
%union.anon.6 = type { i32 }
%struct._zend_string = type { %struct._zend_refcounted_h, i64, i64, [1 x i8] }
%struct._Bucket = type { %struct._zval_struct, i64, ptr }

; Function Attrs: nounwind uwtable
define internal i32 @phar_compare_dir_name(ptr noundef %0, ptr noundef %1) #0 {
  %3 = alloca ptr, align 8
  %4 = alloca ptr, align 8
  %5 = alloca i32, align 4
  store ptr %0, ptr %3, align 8
  store ptr %1, ptr %4, align 8
  %6 = load ptr, ptr %3, align 8
  %7 = getelementptr inbounds %struct._Bucket, ptr %6, i32 0, i32 2
  %8 = load ptr, ptr %7, align 8
  %9 = getelementptr inbounds %struct._zend_string, ptr %8, i32 0, i32 3
  %10 = getelementptr inbounds [1 x i8], ptr %9, i64 0, i64 0
  %11 = load ptr, ptr %3, align 8
  %12 = getelementptr inbounds %struct._Bucket, ptr %11, i32 0, i32 2
  %13 = load ptr, ptr %12, align 8
  %14 = getelementptr inbounds %struct._zend_string, ptr %13, i32 0, i32 2
  %15 = load i64, ptr %14, align 8
  %16 = load ptr, ptr %4, align 8
  %17 = getelementptr inbounds %struct._Bucket, ptr %16, i32 0, i32 2
  %18 = load ptr, ptr %17, align 8
  %19 = getelementptr inbounds %struct._zend_string, ptr %18, i32 0, i32 3
  %20 = getelementptr inbounds [1 x i8], ptr %19, i64 0, i64 0
  %21 = load ptr, ptr %4, align 8
  %22 = getelementptr inbounds %struct._Bucket, ptr %21, i32 0, i32 2
  %23 = load ptr, ptr %22, align 8
  %24 = getelementptr inbounds %struct._zend_string, ptr %23, i32 0, i32 2
  %25 = load i64, ptr %24, align 8
  %26 = call i32 @zend_binary_strcmp(ptr noundef %10, i64 noundef %15, ptr noundef %20, i64 noundef %25)
  store i32 %26, ptr %5, align 4
  %27 = load i32, ptr %5, align 4
  %28 = icmp ne i32 %27, 0
  br i1 %28, label %29, label %33

29:                                               ; preds = %2
  %30 = load i32, ptr %5, align 4
  %31 = icmp slt i32 %30, 0
  %32 = select i1 %31, i32 -1, i32 1
  br label %34

33:                                               ; preds = %2
  br label %34

34:                                               ; preds = %33, %29
  %35 = phi i32 [ %32, %29 ], [ 0, %33 ]
  ret i32 %35
}