; Function Attrs: nounwind uwtable
define internal i32 @phar_compare_dir_name(ptr nocapture noundef readonly %0, ptr nocapture noundef readonly %1) #1 {
  %3 = getelementptr inbounds i8, ptr %0, i64 24
  %4 = load ptr, ptr %3, align 8
  %5 = getelementptr inbounds i8, ptr %4, i64 24
  %6 = getelementptr inbounds i8, ptr %4, i64 16
  %7 = load i64, ptr %6, align 8
  %8 = getelementptr inbounds i8, ptr %1, i64 24
  %9 = load ptr, ptr %8, align 8
  %10 = getelementptr inbounds i8, ptr %9, i64 24
  %11 = getelementptr inbounds i8, ptr %9, i64 16
  %12 = load i64, ptr %11, align 8
  %13 = tail call i32 @zend_binary_strcmp(ptr noundef nonnull %5, i64 noundef %7, ptr noundef nonnull %10, i64 noundef %12) #10
  %.not = icmp eq i32 %13, 0
  %.inv = icmp sgt i32 %13, -1
  %14 = select i1 %.inv, i32 1, i32 -1
  %15 = select i1 %.not, i32 0, i32 %14
  ret i32 %15
}